target datalayout = "e-m:e-p270:32:32-p271:32:32-p272:64:64-i64:64-i128:128-f80:128-n8:16:32:64-S128"
target triple = "x86_64-pc-linux-gnu"

%struct.Nwk_Man_t_ = type { ptr, ptr, ptr, ptr, ptr, [5 x i32], i32, ptr, ptr, ptr, ptr, ptr, i32, i32, i32, i32, i32 }
%struct.Nwk_Obj_t_ = type { ptr, ptr, ptr, %union.anon, i32, i32, i32, i32, float, float, float, i32, i32, i32, ptr }
%union.anon = type { ptr }
%struct.Vec_Ptr_t_ = type { i32, i32, ptr }

; Function Attrs: nounwind uwtable
define internal i32 @Nwk_ObjIsNode(ptr noundef %0) #0 {
  %2 = alloca ptr, align 8
  store ptr %0, ptr %2, align 8
  %3 = load ptr, ptr %2, align 8
  %4 = getelementptr inbounds %struct.Nwk_Obj_t_, ptr %3, i32 0, i32 4
  %5 = load i32, ptr %4, align 8
  %6 = and i32 %5, 7
  %7 = icmp eq i32 %6, 3
  %8 = zext i1 %7 to i32
  ret i32 %8
}

; Function Attrs: nounwind uwtable
define internal i32 @Nwk_ObjLevel(ptr noundef %0) #0 {
  %2 = alloca ptr, align 8
  store ptr %0, ptr %2, align 8
  %3 = load ptr, ptr %2, align 8
  %4 = getelementptr inbounds %struct.Nwk_Obj_t_, ptr %3, i32 0, i32 7
  %5 = load i32, ptr %4, align 4
  ret i32 %5
}

; Function Attrs: nounwind uwtable
define internal ptr @Nwk_ObjFanin0(ptr noundef %0) #0 {
  %2 = alloca ptr, align 8
  store ptr %0, ptr %2, align 8
  %3 = load ptr, ptr %2, align 8
  %4 = getelementptr inbounds %struct.Nwk_Obj_t_, ptr %3, i32 0, i32 14
  %5 = load ptr, ptr %4, align 8
  %6 = getelementptr inbounds ptr, ptr %5, i64 0
  %7 = load ptr, ptr %6, align 8
  ret ptr %7
}

; Function Attrs: nounwind uwtable
define internal i32 @Nwk_ObjIsCo(ptr noundef %0) #0 {
  %2 = alloca ptr, align 8
  store ptr %0, ptr %2, align 8
  %3 = load ptr, ptr %2, align 8
  %4 = getelementptr inbounds %struct.Nwk_Obj_t_, ptr %3, i32 0, i32 4
  %5 = load i32, ptr %4, align 8
  %6 = and i32 %5, 7
  %7 = icmp eq i32 %6, 2
  %8 = zext i1 %7 to i32
  ret i32 %8
}

; Function Attrs: nounwind uwtable
define internal i32 @Nwk_ObjIsCi(ptr noundef %0) #0 {
  %2 = alloca ptr, align 8
  store ptr %0, ptr %2, align 8
  %3 = load ptr, ptr %2, align 8
  %4 = getelementptr inbounds %struct.Nwk_Obj_t_, ptr %3, i32 0, i32 4
  %5 = load i32, ptr %4, align 8
  %6 = and i32 %5, 7
  %7 = icmp eq i32 %6, 1
  %8 = zext i1 %7 to i32
  ret i32 %8
}

; Function Attrs: nounwind uwtable
define internal void @Nwk_ObjSetLevel(ptr noundef %0, i32 noundef %1) #0 {
  %3 = alloca ptr, align 8
  %4 = alloca i32, align 4
  store ptr %0, ptr %3, align 8
  store i32 %1, ptr %4, align 4
  %5 = load i32, ptr %4, align 4
  %6 = load ptr, ptr %3, align 8
  %7 = getelementptr inbounds %struct.Nwk_Obj_t_, ptr %6, i32 0, i32 7
  store i32 %5, ptr %7, align 4
  ret void
}

; Function Attrs: nounwind uwtable
define internal ptr @Vec_PtrEntry(ptr noundef %0, i32 noundef %1) #0 {
  %3 = alloca ptr, align 8
  %4 = alloca i32, align 4
  store ptr %0, ptr %3, align 8
  store i32 %1, ptr %4, align 4
  %5 = load ptr, ptr %3, align 8
  %6 = getelementptr inbounds %struct.Vec_Ptr_t_, ptr %5, i32 0, i32 2
  %7 = load ptr, ptr %6, align 8
  %8 = load i32, ptr %4, align 4
  %9 = sext i32 %8 to i64
  %10 = getelementptr inbounds ptr, ptr %7, i64 %9
  %11 = load ptr, ptr %10, align 8
  ret ptr %11
}

; Function Attrs: nounwind uwtable
define internal i32 @Vec_PtrSize(ptr noundef %0) #0 {
  %2 = alloca ptr, align 8
  store ptr %0, ptr %2, align 8
  %3 = load ptr, ptr %2, align 8
  %4 = getelementptr inbounds %struct.Vec_Ptr_t_, ptr %3, i32 0, i32 1
  %5 = load i32, ptr %4, align 4
  ret i32 %5
}

; Function Attrs: nounwind uwtable
define i32 @Nwk_ManLevelBackup(ptr noundef %0) #0 {
  %2 = alloca ptr, align 8
  %3 = alloca ptr, align 8
  %4 = alloca ptr, align 8
  %5 = alloca ptr, align 8
  %6 = alloca i32, align 4
  %7 = alloca i32, align 4
  %8 = alloca i32, align 4
  %9 = alloca i32, align 4
  store ptr %0, ptr %2, align 8
  store i32 0, ptr %6, align 4
  br label %10

10:                                               ; preds = %32, %1
  %11 = load i32, ptr %6, align 4
  %12 = load ptr, ptr %2, align 8
  %13 = getelementptr inbounds %struct.Nwk_Man_t_, ptr %12, i32 0, i32 4
  %14 = load ptr, ptr %13, align 8
  %15 = call i32 @Vec_PtrSize(ptr noundef %14)
  %16 = icmp slt i32 %11, %15
  br i1 %16, label %17, label %23

17:                                               ; preds = %10
  %18 = load ptr, ptr %2, align 8
  %19 = getelementptr inbounds %struct.Nwk_Man_t_, ptr %18, i32 0, i32 4
  %20 = load ptr, ptr %19, align 8
  %21 = load i32, ptr %6, align 4
  %22 = call ptr @Vec_PtrEntry(ptr noundef %20, i32 noundef %21)
  store ptr %22, ptr %4, align 8
  br label %23

23:                                               ; preds = %17, %10
  %24 = phi i1 [ false, %10 ], [ true, %17 ]
  br i1 %24, label %25, label %35

25:                                               ; preds = %23
  %26 = load ptr, ptr %4, align 8
  %27 = icmp eq ptr %26, null
  br i1 %27, label %28, label %29

28:                                               ; preds = %25
  br label %31

29:                                               ; preds = %25
  %30 = load ptr, ptr %4, align 8
  call void @Nwk_ObjSetLevel(ptr noundef %30, i32 noundef 0)
  br label %31

31:                                               ; preds = %29, %28
  br label %32

32:                                               ; preds = %31
  %33 = load i32, ptr %6, align 4
  %34 = add nsw i32 %33, 1
  store i32 %34, ptr %6, align 4
  br label %10, !llvm.loop !8

35:                                               ; preds = %23
  store i32 0, ptr %8, align 4
  %36 = load ptr, ptr %2, align 8
  %37 = getelementptr inbounds %struct.Nwk_Man_t_, ptr %36, i32 0, i32 8
  %38 = load ptr, ptr %37, align 8
  %39 = icmp ne ptr %38, null
  br i1 %39, label %40, label %45

40:                                               ; preds = %35
  %41 = load ptr, ptr %2, align 8
  %42 = getelementptr inbounds %struct.Nwk_Man_t_, ptr %41, i32 0, i32 8
  %43 = load ptr, ptr %42, align 8
  %44 = call ptr @Tim_ManDup(ptr noundef %43, i32 noundef 1)
  br label %46

45:                                               ; preds = %35
  br label %46

46:                                               ; preds = %45, %40
  %47 = phi ptr [ %44, %40 ], [ null, %45 ]
  store ptr %47, ptr %3, align 8
  %48 = load ptr, ptr %3, align 8
  %49 = icmp ne ptr %48, null
  br i1 %49, label %50, label %52

50:                                               ; preds = %46
  %51 = load ptr, ptr %3, align 8
  call void @Tim_ManIncrementTravId(ptr noundef %51)
  br label %52

52:                                               ; preds = %50, %46
  store i32 0, ptr %6, align 4
  br label %53

53:                                               ; preds = %164, %52
  %54 = load i32, ptr %6, align 4
  %55 = load ptr, ptr %2, align 8
  %56 = getelementptr inbounds %struct.Nwk_Man_t_, ptr %55, i32 0, i32 4
  %57 = load ptr, ptr %56, align 8
  %58 = call i32 @Vec_PtrSize(ptr noundef %57)
  %59 = icmp slt i32 %54, %58
  br i1 %59, label %60, label %66

60:                                               ; preds = %53
  %61 = load ptr, ptr %2, align 8
  %62 = getelementptr inbounds %struct.Nwk_Man_t_, ptr %61, i32 0, i32 4
  %63 = load ptr, ptr %62, align 8
  %64 = load i32, ptr %6, align 4
  %65 = call ptr @Vec_PtrEntry(ptr noundef %63, i32 noundef %64)
  store ptr %65, ptr %4, align 8
  br label %66

66:                                               ; preds = %60, %53
  %67 = phi i1 [ false, %53 ], [ true, %60 ]
  br i1 %67, label %68, label %167

68:                                               ; preds = %66
  %69 = load ptr, ptr %4, align 8
  %70 = icmp eq ptr %69, null
  br i1 %70, label %71, label %72

71:                                               ; preds = %68
  br label %163

72:                                               ; preds = %68
  %73 = load ptr, ptr %4, align 8
  %74 = call i32 @Nwk_ObjIsCi(ptr noundef %73)
  %75 = icmp ne i32 %74, 0
  br i1 %75, label %76, label %92

76:                                               ; preds = %72
  %77 = load ptr, ptr %3, align 8
  %78 = icmp ne ptr %77, null
  br i1 %78, label %79, label %87

79:                                               ; preds = %76
  %80 = load ptr, ptr %3, align 8
  %81 = load ptr, ptr %4, align 8
  %82 = getelementptr inbounds %struct.Nwk_Obj_t_, ptr %81, i32 0, i32 4
  %83 = load i32, ptr %82, align 8
  %84 = lshr i32 %83, 7
  %85 = call float @Tim_ManGetCiArrival(ptr noundef %80, i32 noundef %84)
  %86 = fptosi float %85 to i32
  br label %88

87:                                               ; preds = %76
  br label %88

88:                                               ; preds = %87, %79
  %89 = phi i32 [ %86, %79 ], [ 0, %87 ]
  store i32 %89, ptr %9, align 4
  %90 = load ptr, ptr %4, align 8
  %91 = load i32, ptr %9, align 4
  call void @Nwk_ObjSetLevel(ptr noundef %90, i32 noundef %91)
  br label %162

92:                                               ; preds = %72
  %93 = load ptr, ptr %4, align 8
  %94 = call i32 @Nwk_ObjIsCo(ptr noundef %93)
  %95 = icmp ne i32 %94, 0
  br i1 %95, label %96, label %121

96:                                               ; preds = %92
  %97 = load ptr, ptr %4, align 8
  %98 = call ptr @Nwk_ObjFanin0(ptr noundef %97)
  %99 = call i32 @Nwk_ObjLevel(ptr noundef %98)
  store i32 %99, ptr %9, align 4
  %100 = load ptr, ptr %3, align 8
  %101 = icmp ne ptr %100, null
  br i1 %101, label %102, label %110

102:                                              ; preds = %96
  %103 = load ptr, ptr %3, align 8
  %104 = load ptr, ptr %4, align 8
  %105 = getelementptr inbounds %struct.Nwk_Obj_t_, ptr %104, i32 0, i32 4
  %106 = load i32, ptr %105, align 8
  %107 = lshr i32 %106, 7
  %108 = load i32, ptr %9, align 4
  %109 = sitofp i32 %108 to float
  call void @Tim_ManSetCoArrival(ptr noundef %103, i32 noundef %107, float noundef %109)
  br label %110

110:                                              ; preds = %102, %96
  %111 = load ptr, ptr %4, align 8
  %112 = load i32, ptr %9, align 4
  call void @Nwk_ObjSetLevel(ptr noundef %111, i32 noundef %112)
  %113 = load i32, ptr %8, align 4
  %114 = load ptr, ptr %4, align 8
  %115 = call i32 @Nwk_ObjLevel(ptr noundef %114)
  %116 = icmp slt i32 %113, %115
  br i1 %116, label %117, label %120

117:                                              ; preds = %110
  %118 = load ptr, ptr %4, align 8
  %119 = call i32 @Nwk_ObjLevel(ptr noundef %118)
  store i32 %119, ptr %8, align 4
  br label %120

120:                                              ; preds = %117, %110
  br label %161

121:                                              ; preds = %92
  %122 = load ptr, ptr %4, align 8
  %123 = call i32 @Nwk_ObjIsNode(ptr noundef %122)
  %124 = icmp ne i32 %123, 0
  br i1 %124, label %125, label %159

125:                                              ; preds = %121
  store i32 0, ptr %9, align 4
  store i32 0, ptr %7, align 4
  br label %126

126:                                              ; preds = %152, %125
  %127 = load i32, ptr %7, align 4
  %128 = load ptr, ptr %4, align 8
  %129 = getelementptr inbounds %struct.Nwk_Obj_t_, ptr %128, i32 0, i32 11
  %130 = load i32, ptr %129, align 4
  %131 = icmp slt i32 %127, %130
  br i1 %131, label %132, label %141

132:                                              ; preds = %126
  %133 = load ptr, ptr %4, align 8
  %134 = getelementptr inbounds %struct.Nwk_Obj_t_, ptr %133, i32 0, i32 14
  %135 = load ptr, ptr %134, align 8
  %136 = load i32, ptr %7, align 4
  %137 = sext i32 %136 to i64
  %138 = getelementptr inbounds ptr, ptr %135, i64 %137
  %139 = load ptr, ptr %138, align 8
  store ptr %139, ptr %5, align 8
  %140 = icmp ne ptr %139, null
  br label %141

141:                                              ; preds = %132, %126
  %142 = phi i1 [ false, %126 ], [ %140, %132 ]
  br i1 %142, label %143, label %155

143:                                              ; preds = %141
  %144 = load i32, ptr %9, align 4
  %145 = load ptr, ptr %5, align 8
  %146 = call i32 @Nwk_ObjLevel(ptr noundef %145)
  %147 = icmp slt i32 %144, %146
  br i1 %147, label %148, label %151

148:                                              ; preds = %143
  %149 = load ptr, ptr %5, align 8
  %150 = call i32 @Nwk_ObjLevel(ptr noundef %149)
  store i32 %150, ptr %9, align 4
  br label %151

151:                                              ; preds = %148, %143
  br label %152

152:                                              ; preds = %151
  %153 = load i32, ptr %7, align 4
  %154 = add nsw i32 %153, 1
  store i32 %154, ptr %7, align 4
  br label %126, !llvm.loop !9

155:                                              ; preds = %141
  %156 = load ptr, ptr %4, align 8
  %157 = load i32, ptr %9, align 4
  %158 = add nsw i32 %157, 1
  call void @Nwk_ObjSetLevel(ptr noundef %156, i32 noundef %158)
  br label %160

159:                                              ; preds = %121
  br label %160

160:                                              ; preds = %159, %155
  br label %161

161:                                              ; preds = %160, %120
  br label %162

162:                                              ; preds = %161, %88
  br label %163

163:                                              ; preds = %162, %71
  br label %164

164:                                              ; preds = %163
  %165 = load i32, ptr %6, align 4
  %166 = add nsw i32 %165, 1
  store i32 %166, ptr %6, align 4
  br label %53, !llvm.loop !10

167:                                              ; preds = %66
  %168 = load ptr, ptr %3, align 8
  %169 = icmp ne ptr %168, null
  br i1 %169, label %170, label %172

170:                                              ; preds = %167
  %171 = load ptr, ptr %3, align 8
  call void @Tim_ManStop(ptr noundef %171)
  br label %172

172:                                              ; preds = %170, %167
  %173 = load i32, ptr %8, align 4
  ret i32 %173
}