; Function Attrs: nounwind uwtable
define range(i32 0, -2147483648) i32 @Nwk_ManLevelBackup(ptr noundef readonly captures(none) %0) local_unnamed_addr #0 {
  %2 = getelementptr inbounds nuw i8, ptr %0, i64 32
  %3 = load ptr, ptr %2, align 8
  %4 = getelementptr i8, ptr %3, i64 4
  %.val6785 = load i32, ptr %4, align 4
  %5 = icmp sgt i32 %.val6785, 0
  br i1 %5, label %.lr.ph, label %.critedge

.lr.ph:                                           ; preds = %1, %13
  %6 = phi ptr [ %14, %13 ], [ %3, %1 ]
  %indvars.iv = phi i64 [ %indvars.iv.next, %13 ], [ 0, %1 ]
  %7 = getelementptr i8, ptr %6, i64 8
  %.val69 = load ptr, ptr %7, align 8
  %8 = getelementptr inbounds nuw ptr, ptr %.val69, i64 %indvars.iv
  %9 = load ptr, ptr %8, align 8
  %10 = icmp eq ptr %9, null
  br i1 %10, label %13, label %11

11:                                               ; preds = %.lr.ph
  %12 = getelementptr inbounds nuw i8, ptr %9, i64 44
  store i32 0, ptr %12, align 4
  %.pre = load ptr, ptr %2, align 8
  br label %13

13:                                               ; preds = %11, %.lr.ph
  %14 = phi ptr [ %.pre, %11 ], [ %6, %.lr.ph ]
  %indvars.iv.next = add nuw nsw i64 %indvars.iv, 1
  %15 = getelementptr i8, ptr %14, i64 4
  %.val67 = load i32, ptr %15, align 4
  %16 = sext i32 %.val67 to i64
  %17 = icmp slt i64 %indvars.iv.next, %16
  br i1 %17, label %.lr.ph, label %.critedge, !llvm.loop !8

.critedge:                                        ; preds = %13, %1
  %18 = getelementptr inbounds nuw i8, ptr %0, i64 72
  %19 = load ptr, ptr %18, align 8
  %.not = icmp eq ptr %19, null
  br i1 %.not, label %.thread, label %20

20:                                               ; preds = %.critedge
  %21 = tail call ptr @Tim_ManDup(ptr noundef nonnull %19, i32 noundef 1) #9
  %.not62 = icmp eq ptr %21, null
  br i1 %.not62, label %.thread, label %22

22:                                               ; preds = %20
  tail call void @Tim_ManIncrementTravId(ptr noundef nonnull %21) #9
  br label %.thread

.thread:                                          ; preds = %.critedge, %22, %20
  %.not6280 = phi i1 [ false, %22 ], [ true, %20 ], [ true, %.critedge ]
  %23 = phi ptr [ %21, %22 ], [ null, %20 ], [ null, %.critedge ]
  %24 = load ptr, ptr %2, align 8
  %25 = getelementptr i8, ptr %24, i64 4
  %.val92 = load i32, ptr %25, align 4
  %26 = icmp sgt i32 %.val92, 0
  br i1 %26, label %.lr.ph95, label %.critedge2

.lr.ph95:                                         ; preds = %.thread, %63
  %indvars.iv101 = phi i64 [ %indvars.iv.next102, %63 ], [ 0, %.thread ]
  %27 = phi ptr [ %64, %63 ], [ %24, %.thread ]
  %.05194 = phi i32 [ %.152, %63 ], [ 0, %.thread ]
  %28 = getelementptr i8, ptr %27, i64 8
  %.val68 = load ptr, ptr %28, align 8
  %29 = getelementptr inbounds nuw ptr, ptr %.val68, i64 %indvars.iv101
  %30 = load ptr, ptr %29, align 8
  %31 = icmp eq ptr %30, null
  br i1 %31, label %63, label %32

32:                                               ; preds = %.lr.ph95
  %33 = getelementptr i8, ptr %30, i64 32
  %.val72 = load i32, ptr %33, align 8
  %34 = and i32 %.val72, 7
  switch i32 %34, label %63 [
    i32 1, label %40
    i32 2, label %48
    i32 3, label %.preheader
  ]

.preheader:                                       ; preds = %32
  %35 = getelementptr inbounds nuw i8, ptr %30, i64 60
  %36 = load i32, ptr %35, align 4
  %37 = icmp sgt i32 %36, 0
  br i1 %37, label %.lr.ph89, label %.critedge4

.lr.ph89:                                         ; preds = %.preheader
  %38 = getelementptr inbounds nuw i8, ptr %30, i64 72
  %39 = load ptr, ptr %38, align 8
  %wide.trip.count = zext nneg i32 %36 to i64
  br label %56

40:                                               ; preds = %32
  br i1 %.not6280, label %45, label %41

41:                                               ; preds = %40
  %42 = lshr i32 %.val72, 7
  %43 = tail call float @Tim_ManGetCiArrival(ptr noundef nonnull %23, i32 noundef %42) #9
  %44 = fptosi float %43 to i32
  br label %45

45:                                               ; preds = %40, %41
  %46 = phi i32 [ %44, %41 ], [ 0, %40 ]
  %47 = getelementptr inbounds nuw i8, ptr %30, i64 44
  store i32 %46, ptr %47, align 4
  br label %63

48:                                               ; preds = %32
  %49 = getelementptr i8, ptr %30, i64 72
  %.val73 = load ptr, ptr %49, align 8
  %.val73.val = load ptr, ptr %.val73, align 8
  %50 = getelementptr i8, ptr %.val73.val, i64 44
  %.val74 = load i32, ptr %50, align 4
  br i1 %.not6280, label %54, label %51

51:                                               ; preds = %48
  %52 = lshr i32 %.val72, 7
  %53 = sitofp i32 %.val74 to float
  tail call void @Tim_ManSetCoArrival(ptr noundef nonnull %23, i32 noundef %52, float noundef %53) #9
  br label %54

54:                                               ; preds = %51, %48
  %55 = getelementptr inbounds nuw i8, ptr %30, i64 44
  store i32 %.val74, ptr %55, align 4
  %spec.select = tail call i32 @llvm.smax.i32(i32 %.05194, i32 %.val74)
  br label %63

56:                                               ; preds = %.lr.ph89, %59
  %indvars.iv98 = phi i64 [ 0, %.lr.ph89 ], [ %indvars.iv.next99, %59 ]
  %.088 = phi i32 [ 0, %.lr.ph89 ], [ %spec.select81, %59 ]
  %57 = getelementptr inbounds nuw ptr, ptr %39, i64 %indvars.iv98
  %58 = load ptr, ptr %57, align 8
  %.not66 = icmp eq ptr %58, null
  br i1 %.not66, label %.critedge4.loopexit, label %59

59:                                               ; preds = %56
  %60 = getelementptr i8, ptr %58, i64 44
  %.val77 = load i32, ptr %60, align 4
  %spec.select81 = tail call i32 @llvm.smax.i32(i32 %.088, i32 %.val77)
  %indvars.iv.next99 = add nuw nsw i64 %indvars.iv98, 1
  %exitcond.not = icmp eq i64 %indvars.iv.next99, %wide.trip.count
  br i1 %exitcond.not, label %.critedge4.loopexit, label %56, !llvm.loop !9

.critedge4.loopexit:                              ; preds = %59, %56
  %.0.lcssa.ph = phi i32 [ %.088, %56 ], [ %spec.select81, %59 ]
  %61 = add nuw nsw i32 %.0.lcssa.ph, 1
  br label %.critedge4

.critedge4:                                       ; preds = %.critedge4.loopexit, %.preheader
  %.0.lcssa = phi i32 [ 1, %.preheader ], [ %61, %.critedge4.loopexit ]
  %62 = getelementptr inbounds nuw i8, ptr %30, i64 44
  store i32 %.0.lcssa, ptr %62, align 4
  br label %63

63:                                               ; preds = %32, %54, %.lr.ph95, %.critedge4, %45
  %.152 = phi i32 [ %.05194, %.lr.ph95 ], [ %.05194, %45 ], [ %.05194, %.critedge4 ], [ %spec.select, %54 ], [ %.05194, %32 ]
  %indvars.iv.next102 = add nuw nsw i64 %indvars.iv101, 1
  %64 = load ptr, ptr %2, align 8
  %65 = getelementptr i8, ptr %64, i64 4
  %.val = load i32, ptr %65, align 4
  %66 = sext i32 %.val to i64
  %67 = icmp slt i64 %indvars.iv.next102, %66
  br i1 %67, label %.lr.ph95, label %.critedge2, !llvm.loop !10

.critedge2:                                       ; preds = %63, %.thread
  %.051.lcssa = phi i32 [ 0, %.thread ], [ %.152, %63 ]
  br i1 %.not6280, label %69, label %68

68:                                               ; preds = %.critedge2
  tail call void @Tim_ManStop(ptr noundef nonnull %23) #9
  br label %69

69:                                               ; preds = %68, %.critedge2
  ret i32 %.051.lcssa
}